target datalayout = "e-m:e-p270:32:32-p271:32:32-p272:64:64-i64:64-i128:128-f80:128-n8:16:32:64-S128"
target triple = "x86_64-pc-linux-gnu"

%struct.cli_ftw_cbdata = type { ptr }
%struct.client_serial_data = type { i32, i32, i32, i32, i32 }

@printinfected = dso_local global i32 0, align 4
@.str = private unnamed_addr constant [8 x i8] c"%s: OK\0A\00", align 1
@.str.1 = private unnamed_addr constant [22 x i8] c"%s: No files scanned\0A\00", align 1

; Function Attrs: nounwind uwtable
define dso_local i32 @serial_client_scan(ptr noundef %0, i32 noundef %1, ptr noundef %2, ptr noundef %3, i32 noundef %4, i32 noundef %5) #0 {
  %7 = alloca i32, align 4
  %8 = alloca ptr, align 8
  %9 = alloca i32, align 4
  %10 = alloca ptr, align 8
  %11 = alloca ptr, align 8
  %12 = alloca i32, align 4
  %13 = alloca i32, align 4
  %14 = alloca %struct.cli_ftw_cbdata, align 8
  %15 = alloca %struct.client_serial_data, align 4
  %16 = alloca i32, align 4
  store ptr %0, ptr %8, align 8
  store i32 %1, ptr %9, align 4
  store ptr %2, ptr %10, align 8
  store ptr %3, ptr %11, align 8
  store i32 %4, ptr %12, align 4
  store i32 %5, ptr %13, align 4
  %17 = getelementptr inbounds %struct.client_serial_data, ptr %15, i32 0, i32 0
  store i32 0, ptr %17, align 4
  %18 = getelementptr inbounds %struct.client_serial_data, ptr %15, i32 0, i32 3
  store i32 0, ptr %18, align 4
  %19 = getelementptr inbounds %struct.client_serial_data, ptr %15, i32 0, i32 4
  store i32 0, ptr %19, align 4
  %20 = load i32, ptr @printinfected, align 4
  %21 = xor i32 %20, 1
  %22 = getelementptr inbounds %struct.client_serial_data, ptr %15, i32 0, i32 2
  store i32 %21, ptr %22, align 4
  %23 = load i32, ptr %9, align 4
  %24 = getelementptr inbounds %struct.client_serial_data, ptr %15, i32 0, i32 1
  store i32 %23, ptr %24, align 4
  %25 = getelementptr inbounds %struct.cli_ftw_cbdata, ptr %14, i32 0, i32 0
  store ptr %15, ptr %25, align 8
  %26 = load ptr, ptr %8, align 8
  %27 = load i32, ptr %13, align 4
  %28 = load i32, ptr %12, align 4
  %29 = icmp ne i32 %28, 0
  br i1 %29, label %30, label %32

30:                                               ; preds = %6
  %31 = load i32, ptr %12, align 4
  br label %33

32:                                               ; preds = %6
  br label %33

33:                                               ; preds = %32, %30
  %34 = phi i32 [ %31, %30 ], [ 2147483647, %32 ]
  %35 = call i32 @cli_ftw(ptr noundef %26, i32 noundef %27, i32 noundef %34, ptr noundef @serial_callback, ptr noundef %14, ptr noundef @ftw_chkpath)
  store i32 %35, ptr %16, align 4
  %36 = getelementptr inbounds %struct.client_serial_data, ptr %15, i32 0, i32 0
  %37 = load i32, ptr %36, align 4
  %38 = load ptr, ptr %10, align 8
  %39 = load i32, ptr %38, align 4
  %40 = add nsw i32 %39, %37
  store i32 %40, ptr %38, align 4
  %41 = getelementptr inbounds %struct.client_serial_data, ptr %15, i32 0, i32 4
  %42 = load i32, ptr %41, align 4
  %43 = load ptr, ptr %11, align 8
  %44 = load i32, ptr %43, align 4
  %45 = add nsw i32 %44, %42
  store i32 %45, ptr %43, align 4
  %46 = getelementptr inbounds %struct.client_serial_data, ptr %15, i32 0, i32 4
  %47 = load i32, ptr %46, align 4
  %48 = icmp ne i32 %47, 0
  br i1 %48, label %63, label %49

49:                                               ; preds = %33
  %50 = load i32, ptr %16, align 4
  %51 = icmp eq i32 %50, 0
  br i1 %51, label %55, label %52

52:                                               ; preds = %49
  %53 = load i32, ptr %16, align 4
  %54 = icmp eq i32 %53, 22
  br i1 %54, label %55, label %63

55:                                               ; preds = %52, %49
  %56 = getelementptr inbounds %struct.client_serial_data, ptr %15, i32 0, i32 2
  %57 = load i32, ptr %56, align 4
  %58 = icmp ne i32 %57, 0
  br i1 %58, label %59, label %62

59:                                               ; preds = %55
  %60 = load ptr, ptr %8, align 8
  %61 = call i32 (i32, ptr, ...) @logg(i32 noundef 0, ptr noundef @.str, ptr noundef %60)
  br label %62

62:                                               ; preds = %59, %55
  store i32 0, ptr %7, align 4
  br label %72

63:                                               ; preds = %52, %33
  %64 = getelementptr inbounds %struct.client_serial_data, ptr %15, i32 0, i32 3
  %65 = load i32, ptr %64, align 4
  %66 = icmp ne i32 %65, 0
  br i1 %66, label %70, label %67

67:                                               ; preds = %63
  %68 = load ptr, ptr %8, align 8
  %69 = call i32 (i32, ptr, ...) @logg(i32 noundef 0, ptr noundef @.str.1, ptr noundef %68)
  store i32 0, ptr %7, align 4
  br label %72

70:                                               ; preds = %63
  br label %71

71:                                               ; preds = %70
  store i32 1, ptr %7, align 4
  br label %72

72:                                               ; preds = %71, %67, %62
  %73 = load i32, ptr %7, align 4
  ret i32 %73
}