; Function Attrs: nounwind uwtable
define dso_local range(i32 0, 2) i32 @serial_client_scan(ptr noundef %0, i32 noundef %1, ptr noundef captures(none) %2, ptr noundef captures(none) %3, i32 noundef %4, i32 noundef %5) local_unnamed_addr #0 {
  %7 = alloca %struct.cli_ftw_cbdata, align 8
  %8 = alloca %struct.client_serial_data, align 4
  store i32 0, ptr %8, align 4
  %9 = getelementptr inbounds nuw i8, ptr %8, i64 12
  store i32 0, ptr %9, align 4
  %10 = getelementptr inbounds nuw i8, ptr %8, i64 16
  store i32 0, ptr %10, align 4
  %11 = load i32, ptr @printinfected, align 4
  %12 = xor i32 %11, 1
  %13 = getelementptr inbounds nuw i8, ptr %8, i64 8
  store i32 %12, ptr %13, align 4
  %14 = getelementptr inbounds nuw i8, ptr %8, i64 4
  store i32 %1, ptr %14, align 4
  store ptr %8, ptr %7, align 8
  %.not = icmp eq i32 %4, 0
  %15 = select i1 %.not, i32 2147483647, i32 %4
  %16 = call i32 @cli_ftw(ptr noundef %0, i32 noundef %5, i32 noundef %15, ptr noundef nonnull @serial_callback, ptr noundef nonnull %7, ptr noundef nonnull @ftw_chkpath) #11
  %17 = load i32, ptr %8, align 4
  %18 = load i32, ptr %2, align 4
  %19 = add nsw i32 %18, %17
  store i32 %19, ptr %2, align 4
  %20 = load i32, ptr %10, align 4
  %21 = load i32, ptr %3, align 4
  %22 = add nsw i32 %21, %20
  store i32 %22, ptr %3, align 4
  %.not12 = icmp eq i32 %20, 0
  br i1 %.not12, label %23, label %26

23:                                               ; preds = %6
  switch i32 %16, label %26 [
    i32 22, label %24
    i32 0, label %24
  ]

24:                                               ; preds = %23, %23
  %25 = load i32, ptr %13, align 4
  %.not13 = icmp eq i32 %25, 0
  br i1 %.not13, label %29, label %.sink.split

26:                                               ; preds = %23, %6
  %27 = load i32, ptr %9, align 4
  %.not14 = icmp eq i32 %27, 0
  br i1 %.not14, label %.sink.split, label %29

.sink.split:                                      ; preds = %26, %24
  %.str.sink = phi ptr [ @.str, %24 ], [ @.str.1, %26 ]
  %28 = call i32 (i32, ptr, ...) @logg(i32 noundef 0, ptr noundef nonnull %.str.sink, ptr noundef %0) #11
  br label %29

29:                                               ; preds = %.sink.split, %26, %24
  %.0 = phi i32 [ 0, %24 ], [ 1, %26 ], [ 0, %.sink.split ]
  ret i32 %.0
}